target datalayout = "e-m:e-p270:32:32-p271:32:32-p272:64:64-i64:64-i128:128-f80:128-n8:16:32:64-S128"
target triple = "x86_64-pc-linux-gnu"

%"class.std::__cxx11::basic_string" = type { %"struct.std::__cxx11::basic_string<char>::_Alloc_hider", i64, %union.anon }
%"struct.std::__cxx11::basic_string<char>::_Alloc_hider" = type { ptr }
%union.anon = type { i64, [8 x i8] }
%"struct.osgeo::proj::ExtentAndRes" = type { i8, double, double, double, double, double, double, double, double }
%"class.osgeo::proj::Grid" = type { ptr, %"class.std::__cxx11::basic_string", i32, i32, %"struct.osgeo::proj::ExtentAndRes" }
%"class.std::vector.46" = type { %"struct.std::_Vector_base.47" }
%"struct.std::_Vector_base.47" = type { %"struct.std::_Vector_base<unsigned char, std::allocator<unsigned char>>::_Vector_impl" }
%"struct.std::_Vector_base<unsigned char, std::allocator<unsigned char>>::_Vector_impl" = type { %"struct.std::_Vector_base<unsigned char, std::allocator<unsigned char>>::_Vector_impl_data" }
%"struct.std::_Vector_base<unsigned char, std::allocator<unsigned char>>::_Vector_impl_data" = type { ptr, ptr, ptr }
%"class.osgeo::proj::GTiffGrid" = type <{ %"class.osgeo::proj::Grid", ptr, ptr, ptr, ptr, i32, i32, i16, i16, i8, [3 x i8], i64, i8, [3 x i8], i32, i32, [4 x i8], %"class.std::vector.46", i32, i32, i32, i32, %"class.std::vector.51", %"class.std::vector.51", %"class.std::map", i8, i8, i8, i8, float, i32, [4 x i8] }>
%"class.std::vector.51" = type { %"struct.std::_Vector_base.52" }
%"struct.std::_Vector_base.52" = type { %"struct.std::_Vector_base<double, std::allocator<double>>::_Vector_impl" }
%"struct.std::_Vector_base<double, std::allocator<double>>::_Vector_impl" = type { %"struct.std::_Vector_base<double, std::allocator<double>>::_Vector_impl_data" }
%"struct.std::_Vector_base<double, std::allocator<double>>::_Vector_impl_data" = type { ptr, ptr, ptr }
%"class.std::map" = type { %"class.std::_Rb_tree" }
%"class.std::_Rb_tree" = type { %"struct.std::_Rb_tree<std::pair<int, std::__cxx11::basic_string<char>>, std::pair<const std::pair<int, std::__cxx11::basic_string<char>>, std::__cxx11::basic_string<char>>, std::_Select1st<std::pair<const std::pair<int, std::__cxx11::basic_string<char>>, std::__cxx11::basic_string<char>>>, std::less<std::pair<int, std::__cxx11::basic_string<char>>>>::_Rb_tree_impl" }
%"struct.std::_Rb_tree<std::pair<int, std::__cxx11::basic_string<char>>, std::pair<const std::pair<int, std::__cxx11::basic_string<char>>, std::__cxx11::basic_string<char>>, std::_Select1st<std::pair<const std::pair<int, std::__cxx11::basic_string<char>>, std::__cxx11::basic_string<char>>>, std::less<std::pair<int, std::__cxx11::basic_string<char>>>>::_Rb_tree_impl" = type { [8 x i8], %"struct.std::_Rb_tree_header" }
%"struct.std::_Rb_tree_header" = type { %"struct.std::_Rb_tree_node_base", i64 }
%"struct.std::_Rb_tree_node_base" = type { i32, ptr, ptr, ptr }

; Function Attrs: mustprogress nounwind uwtable
define linkonce_odr noundef zeroext i1 @_ZSt5isnanf(float noundef %0) #0 comdat {
  %2 = alloca float, align 4
  store float %0, ptr %2, align 4, !tbaa !52
  %3 = load float, ptr %2, align 4, !tbaa !52
  %4 = call i1 @llvm.is.fpclass.f32(float %3, i32 3)
  ret i1 %4
}

; Function Attrs: mustprogress uwtable
define hidden noundef zeroext i1 @_ZNK5osgeo4proj9GTiffGrid8isNodataEf(ptr noundef nonnull align 8 dereferenceable(340) %0, float noundef %1) #1 align 2 {
  %3 = alloca ptr, align 8
  %4 = alloca float, align 4
  store ptr %0, ptr %3, align 8, !tbaa !123
  store float %1, ptr %4, align 4, !tbaa !52
  %5 = load ptr, ptr %3, align 8
  %6 = getelementptr inbounds nuw %"class.osgeo::proj::GTiffGrid", ptr %5, i32 0, i32 25
  %7 = load i8, ptr %6, align 8, !tbaa !166, !range !16, !noundef !17
  %8 = trunc i8 %7 to i1
  br i1 %8, label %9, label %14

9:                                                ; preds = %2
  %10 = load float, ptr %4, align 4, !tbaa !52
  %11 = getelementptr inbounds nuw %"class.osgeo::proj::GTiffGrid", ptr %5, i32 0, i32 29
  %12 = load float, ptr %11, align 4, !tbaa !169
  %13 = fcmp oeq float %10, %12
  br i1 %13, label %17, label %14

14:                                               ; preds = %9, %2
  %15 = load float, ptr %4, align 4, !tbaa !52
  %16 = call noundef zeroext i1 @_ZSt5isnanf(float noundef %15)
  br label %17

17:                                               ; preds = %14, %9
  %18 = phi i1 [ true, %9 ], [ %16, %14 ]
  ret i1 %18
}