; Function Attrs: mustprogress nofree norecurse nosync nounwind willreturn memory(argmem: read) uwtable
define hidden noundef zeroext i1 @_ZNK5osgeo4proj9GTiffGrid8isNodataEf(ptr noundef nonnull readonly align 8 captures(none) dereferenceable(340) %0, float noundef %1) local_unnamed_addr #1 align 2 {
  %3 = getelementptr inbounds nuw i8, ptr %0, i64 328
  %4 = load i8, ptr %3, align 8, !tbaa !199, !range !13, !noundef !14
  %5 = trunc nuw i8 %4 to i1
  %6 = getelementptr inbounds nuw i8, ptr %0, i64 332
  %7 = load float, ptr %6, align 4
  %8 = fcmp oeq float %1, %7
  %or.cond = select i1 %5, i1 %8, i1 false
  %9 = fcmp uno float %1, 0.000000e+00
  %spec.select = or i1 %9, %or.cond
  ret i1 %spec.select
}